target datalayout = "e-m:e-p270:32:32-p271:32:32-p272:64:64-i64:64-i128:128-f80:128-n8:16:32:64-S128"
target triple = "x86_64-pc-linux-gnu"

%struct.expert_field = type { i32, i32 }
%struct._packet_info = type { ptr, ptr, i32, i32, %struct.nstime_t, %struct.nstime_t, %struct.nstime_t, i8, ptr, ptr, ptr, ptr, %struct._address, %struct._address, %struct._address, %struct._address, %struct._address, %struct._address, i32, ptr, i8, [3 x i8], %struct.anon, i32, i32, i32, i32, ptr, i8, ptr, ptr, i16, i16, i32, i32, i16, i32, i32, ptr, ptr, ptr, i8, i8, i16, i16, i16, i32, i16, i16, ptr, ptr, ptr, ptr, ptr, i32, i32 }
%struct.nstime_t = type { i64, i32 }
%struct._address = type { i32, i32, ptr, ptr }
%struct.anon = type { i8, [3 x i8] }

@ei_gsm_a_gm_extraneous_data = internal global %struct.expert_field zeroinitializer, align 4
@.str.83 = private unnamed_addr constant [1 x i8] zeroinitializer, align 1
@ei_gsm_a_gm_missing_mandatory_element = internal global %struct.expert_field zeroinitializer, align 4
@.str.1095 = private unnamed_addr constant [62 x i8] c"Missing Mandatory element %s%s, rest of dissection is suspect\00", align 1
@.str.1096 = private unnamed_addr constant [64 x i8] c"Missing Mandatory elements %s %s, rest of dissection is suspect\00", align 1
@.str.1109 = private unnamed_addr constant [20 x i8] c" - Allocated P-TMSI\00", align 1
@.str.1122 = private unnamed_addr constant [20 x i8] c" - P-TMSI Signature\00", align 1

; Function Attrs: null_pointer_is_valid sspstrong uwtable
define internal void @dtap_gmm_ptmsi_realloc_cmd(ptr noundef %0, ptr noundef %1, ptr noundef %2, i32 noundef %3, i32 noundef %4) #1 {
  %6 = alloca ptr, align 8
  %7 = alloca ptr, align 8
  %8 = alloca ptr, align 8
  %9 = alloca i32, align 4
  %10 = alloca i32, align 4
  %11 = alloca i32, align 4
  %12 = alloca i32, align 4
  %13 = alloca i32, align 4
  %14 = alloca i32, align 4
  store ptr %0, ptr %6, align 8
  store ptr %1, ptr %7, align 8
  store ptr %2, ptr %8, align 8
  store i32 %3, ptr %9, align 4
  store i32 %4, ptr %10, align 4
  call void @llvm.lifetime.start.p0(i64 4, ptr %11) #6
  call void @llvm.lifetime.start.p0(i64 4, ptr %12) #6
  call void @llvm.lifetime.start.p0(i64 4, ptr %13) #6
  %15 = load i32, ptr %9, align 4
  store i32 %15, ptr %11, align 4
  %16 = load i32, ptr %10, align 4
  store i32 %16, ptr %13, align 4
  %17 = load ptr, ptr %8, align 8
  %18 = getelementptr inbounds nuw %struct._packet_info, ptr %17, i32 0, i32 37
  store i32 0, ptr %18, align 4
  %19 = load i32, ptr %13, align 4
  %20 = icmp sgt i32 %19, 0
  br i1 %20, label %21, label %37

21:                                               ; preds = %5
  %22 = load ptr, ptr %6, align 8
  %23 = load ptr, ptr %7, align 8
  %24 = load ptr, ptr %8, align 8
  %25 = load i32, ptr %11, align 4
  %26 = load i32, ptr %13, align 4
  %27 = call zeroext i16 @elem_lv(ptr noundef %22, ptr noundef %23, ptr noundef %24, i32 noundef 4, i32 noundef 3, i32 noundef %25, i32 noundef %26, ptr noundef @.str.1109)
  %28 = zext i16 %27 to i32
  store i32 %28, ptr %12, align 4
  %29 = icmp ugt i32 %28, 0
  br i1 %29, label %30, label %37

30:                                               ; preds = %21
  %31 = load i32, ptr %12, align 4
  %32 = load i32, ptr %11, align 4
  %33 = add i32 %32, %31
  store i32 %33, ptr %11, align 4
  %34 = load i32, ptr %12, align 4
  %35 = load i32, ptr %13, align 4
  %36 = sub i32 %35, %34
  store i32 %36, ptr %13, align 4
  br label %44

37:                                               ; preds = %21, %5
  %38 = load ptr, ptr %7, align 8
  %39 = load ptr, ptr %8, align 8
  %40 = load ptr, ptr %6, align 8
  %41 = load i32, ptr %11, align 4
  %42 = call ptr @get_gsm_a_msg_string(i32 noundef 4, i32 noundef 3)
  %43 = call ptr (ptr, ptr, ptr, ptr, i32, i32, ptr, ...) @proto_tree_add_expert_format(ptr noundef %38, ptr noundef %39, ptr noundef @ei_gsm_a_gm_missing_mandatory_element, ptr noundef %40, i32 noundef %41, i32 noundef 0, ptr noundef @.str.1095, ptr noundef %42, ptr noundef @.str.1109)
  br label %44

44:                                               ; preds = %37, %30
  %45 = load i32, ptr %13, align 4
  %46 = icmp sgt i32 %45, 0
  br i1 %46, label %47, label %62

47:                                               ; preds = %44
  %48 = load ptr, ptr %6, align 8
  %49 = load ptr, ptr %7, align 8
  %50 = load ptr, ptr %8, align 8
  %51 = load i32, ptr %11, align 4
  %52 = call zeroext i16 @elem_v(ptr noundef %48, ptr noundef %49, ptr noundef %50, i32 noundef 5, i32 noundef 18, i32 noundef %51, ptr noundef null)
  %53 = zext i16 %52 to i32
  store i32 %53, ptr %12, align 4
  %54 = icmp ugt i32 %53, 0
  br i1 %54, label %55, label %62

55:                                               ; preds = %47
  %56 = load i32, ptr %12, align 4
  %57 = load i32, ptr %11, align 4
  %58 = add i32 %57, %56
  store i32 %58, ptr %11, align 4
  %59 = load i32, ptr %12, align 4
  %60 = load i32, ptr %13, align 4
  %61 = sub i32 %60, %59
  store i32 %61, ptr %13, align 4
  br label %69

62:                                               ; preds = %47, %44
  %63 = load ptr, ptr %7, align 8
  %64 = load ptr, ptr %8, align 8
  %65 = load ptr, ptr %6, align 8
  %66 = load i32, ptr %11, align 4
  %67 = call ptr @get_gsm_a_msg_string(i32 noundef 5, i32 noundef 18)
  %68 = call ptr (ptr, ptr, ptr, ptr, i32, i32, ptr, ...) @proto_tree_add_expert_format(ptr noundef %63, ptr noundef %64, ptr noundef @ei_gsm_a_gm_missing_mandatory_element, ptr noundef %65, i32 noundef %66, i32 noundef 0, ptr noundef @.str.1095, ptr noundef %67, ptr noundef @.str.83)
  br label %69

69:                                               ; preds = %62, %55
  %70 = load i32, ptr %13, align 4
  %71 = icmp sgt i32 %70, 0
  br i1 %71, label %72, label %87

72:                                               ; preds = %69
  %73 = load ptr, ptr %6, align 8
  %74 = load ptr, ptr %7, align 8
  %75 = load ptr, ptr %8, align 8
  %76 = load i32, ptr %11, align 4
  %77 = call zeroext i16 @elem_v_short(ptr noundef %73, ptr noundef %74, ptr noundef %75, i32 noundef 5, i32 noundef 8, i32 noundef %76, i32 noundef 1)
  %78 = load ptr, ptr %6, align 8
  %79 = load ptr, ptr %7, align 8
  %80 = load ptr, ptr %8, align 8
  %81 = load i32, ptr %11, align 4
  %82 = call zeroext i16 @elem_v_short(ptr noundef %78, ptr noundef %79, ptr noundef %80, i32 noundef 4, i32 noundef 7, i32 noundef %81, i32 noundef 2)
  %83 = load i32, ptr %11, align 4
  %84 = add i32 %83, 1
  store i32 %84, ptr %11, align 4
  %85 = load i32, ptr %13, align 4
  %86 = add i32 %85, -1
  store i32 %86, ptr %13, align 4
  br label %95

87:                                               ; preds = %69
  %88 = load ptr, ptr %7, align 8
  %89 = load ptr, ptr %8, align 8
  %90 = load ptr, ptr %6, align 8
  %91 = load i32, ptr %11, align 4
  %92 = call ptr @get_gsm_a_msg_string(i32 noundef 5, i32 noundef 8)
  %93 = call ptr @get_gsm_a_msg_string(i32 noundef 4, i32 noundef 7)
  %94 = call ptr (ptr, ptr, ptr, ptr, i32, i32, ptr, ...) @proto_tree_add_expert_format(ptr noundef %88, ptr noundef %89, ptr noundef @ei_gsm_a_gm_missing_mandatory_element, ptr noundef %90, i32 noundef %91, i32 noundef 0, ptr noundef @.str.1096, ptr noundef %92, ptr noundef %93)
  br label %95

95:                                               ; preds = %87, %72
  %96 = load i32, ptr %13, align 4
  %97 = icmp sle i32 %96, 0
  br i1 %97, label %98, label %99

98:                                               ; preds = %95
  store i32 1, ptr %14, align 4
  br label %150

99:                                               ; preds = %95
  %100 = load ptr, ptr %6, align 8
  %101 = load ptr, ptr %7, align 8
  %102 = load ptr, ptr %8, align 8
  %103 = load i32, ptr %11, align 4
  %104 = call zeroext i16 @elem_tv(ptr noundef %100, ptr noundef %101, ptr noundef %102, i8 noundef zeroext 25, i32 noundef 5, i32 noundef 10, i32 noundef %103, ptr noundef @.str.1122)
  %105 = zext i16 %104 to i32
  store i32 %105, ptr %12, align 4
  %106 = icmp ugt i32 %105, 0
  br i1 %106, label %107, label %114

107:                                              ; preds = %99
  %108 = load i32, ptr %12, align 4
  %109 = load i32, ptr %11, align 4
  %110 = add i32 %109, %108
  store i32 %110, ptr %11, align 4
  %111 = load i32, ptr %12, align 4
  %112 = load i32, ptr %13, align 4
  %113 = sub i32 %112, %111
  store i32 %113, ptr %13, align 4
  br label %114

114:                                              ; preds = %107, %99
  %115 = load i32, ptr %13, align 4
  %116 = icmp sle i32 %115, 0
  br i1 %116, label %117, label %118

117:                                              ; preds = %114
  store i32 1, ptr %14, align 4
  br label %150

118:                                              ; preds = %114
  %119 = load ptr, ptr %6, align 8
  %120 = load ptr, ptr %7, align 8
  %121 = load ptr, ptr %8, align 8
  %122 = load i32, ptr %11, align 4
  %123 = load i32, ptr %13, align 4
  %124 = call zeroext i16 @elem_tlv(ptr noundef %119, ptr noundef %120, ptr noundef %121, i8 noundef zeroext 101, i32 noundef 5, i32 noundef 40, i32 noundef %122, i32 noundef %123, ptr noundef null)
  %125 = zext i16 %124 to i32
  store i32 %125, ptr %12, align 4
  %126 = icmp ugt i32 %125, 0
  br i1 %126, label %127, label %134

127:                                              ; preds = %118
  %128 = load i32, ptr %12, align 4
  %129 = load i32, ptr %11, align 4
  %130 = add i32 %129, %128
  store i32 %130, ptr %11, align 4
  %131 = load i32, ptr %12, align 4
  %132 = load i32, ptr %13, align 4
  %133 = sub i32 %132, %131
  store i32 %133, ptr %13, align 4
  br label %134

134:                                              ; preds = %127, %118
  %135 = load i32, ptr %13, align 4
  %136 = icmp ugt i32 %135, 0
  br i1 %136, label %137, label %149

137:                                              ; preds = %134
  %138 = load ptr, ptr %7, align 8
  %139 = load ptr, ptr %8, align 8
  %140 = load ptr, ptr %6, align 8
  %141 = load i32, ptr %11, align 4
  %142 = load i32, ptr %13, align 4
  %143 = sub i32 %142, 0
  %144 = call ptr @proto_tree_add_expert(ptr noundef %138, ptr noundef %139, ptr noundef @ei_gsm_a_gm_extraneous_data, ptr noundef %140, i32 noundef %141, i32 noundef %143)
  %145 = load i32, ptr %13, align 4
  %146 = sub i32 %145, 0
  %147 = load i32, ptr %11, align 4
  %148 = add i32 %147, %146
  store i32 %148, ptr %11, align 4
  br label %149

149:                                              ; preds = %137, %134
  store i32 0, ptr %14, align 4
  br label %150

150:                                              ; preds = %149, %117, %98
  call void @llvm.lifetime.end.p0(i64 4, ptr %13) #6
  call void @llvm.lifetime.end.p0(i64 4, ptr %12) #6
  call void @llvm.lifetime.end.p0(i64 4, ptr %11) #6
  %151 = load i32, ptr %14, align 4
  switch i32 %151, label %153 [
    i32 0, label %152
    i32 1, label %152
  ]

152:                                              ; preds = %150, %150
  ret void

153:                                              ; preds = %150
  unreachable
}