; Function Attrs: null_pointer_is_valid sspstrong uwtable
define internal void @dtap_gmm_ptmsi_realloc_cmd(ptr noundef %0, ptr noundef %1, ptr noundef initializes((348, 352)) %2, i32 noundef %3, i32 noundef %4) #1 {
  %6 = getelementptr inbounds nuw i8, ptr %2, i64 348
  store i32 0, ptr %6, align 4
  %7 = icmp sgt i32 %4, 0
  br i1 %7, label %8, label %14

8:                                                ; preds = %5
  %9 = tail call zeroext i16 @elem_lv(ptr noundef %0, ptr noundef %1, ptr noundef %2, i32 noundef 4, i32 noundef 3, i32 noundef %3, i32 noundef %4, ptr noundef nonnull @.str.1109)
  %.not = icmp eq i16 %9, 0
  br i1 %.not, label %14, label %10

10:                                               ; preds = %8
  %11 = zext i16 %9 to i32
  %12 = add i32 %3, %11
  %13 = sub nsw i32 %4, %11
  br label %17

14:                                               ; preds = %8, %5
  %15 = tail call ptr @get_gsm_a_msg_string(i32 noundef 4, i32 noundef 3)
  %16 = tail call ptr (ptr, ptr, ptr, ptr, i32, i32, ptr, ...) @proto_tree_add_expert_format(ptr noundef %1, ptr noundef %2, ptr noundef nonnull @ei_gsm_a_gm_missing_mandatory_element, ptr noundef %0, i32 noundef %3, i32 noundef 0, ptr noundef nonnull @.str.1095, ptr noundef %15, ptr noundef nonnull @.str.1109)
  br label %17

17:                                               ; preds = %14, %10
  %.071 = phi i32 [ %12, %10 ], [ %3, %14 ]
  %.0 = phi i32 [ %13, %10 ], [ %4, %14 ]
  %18 = icmp sgt i32 %.0, 0
  br i1 %18, label %19, label %25

19:                                               ; preds = %17
  %20 = tail call zeroext i16 @elem_v(ptr noundef %0, ptr noundef %1, ptr noundef %2, i32 noundef 5, i32 noundef 18, i32 noundef %.071, ptr noundef null)
  %.not81 = icmp eq i16 %20, 0
  br i1 %.not81, label %25, label %21

21:                                               ; preds = %19
  %22 = zext i16 %20 to i32
  %23 = add i32 %.071, %22
  %24 = sub nsw i32 %.0, %22
  br label %28

25:                                               ; preds = %19, %17
  %26 = tail call ptr @get_gsm_a_msg_string(i32 noundef 5, i32 noundef 18)
  %27 = tail call ptr (ptr, ptr, ptr, ptr, i32, i32, ptr, ...) @proto_tree_add_expert_format(ptr noundef %1, ptr noundef %2, ptr noundef nonnull @ei_gsm_a_gm_missing_mandatory_element, ptr noundef %0, i32 noundef %.071, i32 noundef 0, ptr noundef nonnull @.str.1095, ptr noundef %26, ptr noundef nonnull @.str.83)
  br label %28

28:                                               ; preds = %25, %21
  %.172 = phi i32 [ %23, %21 ], [ %.071, %25 ]
  %.1 = phi i32 [ %24, %21 ], [ %.0, %25 ]
  %29 = icmp sgt i32 %.1, 0
  br i1 %29, label %33, label %.thread

.thread:                                          ; preds = %28
  %30 = tail call ptr @get_gsm_a_msg_string(i32 noundef 5, i32 noundef 8)
  %31 = tail call ptr @get_gsm_a_msg_string(i32 noundef 4, i32 noundef 7)
  %32 = tail call ptr (ptr, ptr, ptr, ptr, i32, i32, ptr, ...) @proto_tree_add_expert_format(ptr noundef %1, ptr noundef %2, ptr noundef nonnull @ei_gsm_a_gm_missing_mandatory_element, ptr noundef %0, i32 noundef %.172, i32 noundef 0, ptr noundef nonnull @.str.1096, ptr noundef %30, ptr noundef %31)
  br label %52

33:                                               ; preds = %28
  %34 = tail call zeroext i16 @elem_v_short(ptr noundef %0, ptr noundef %1, ptr noundef %2, i32 noundef 5, i32 noundef 8, i32 noundef %.172, i32 noundef 1)
  %35 = tail call zeroext i16 @elem_v_short(ptr noundef %0, ptr noundef %1, ptr noundef %2, i32 noundef 4, i32 noundef 7, i32 noundef %.172, i32 noundef 2)
  %36 = add nsw i32 %.1, -1
  %37 = icmp eq i32 %36, 0
  br i1 %37, label %52, label %38

38:                                               ; preds = %33
  %39 = add i32 %.172, 1
  %40 = tail call zeroext i16 @elem_tv(ptr noundef %0, ptr noundef %1, ptr noundef %2, i8 noundef zeroext 25, i32 noundef 5, i32 noundef 10, i32 noundef %39, ptr noundef nonnull @.str.1122)
  %41 = zext i16 %40 to i32
  %42 = sub nsw i32 %36, %41
  %43 = icmp slt i32 %42, 1
  br i1 %43, label %52, label %44

44:                                               ; preds = %38
  %45 = add i32 %39, %41
  %46 = tail call zeroext i16 @elem_tlv(ptr noundef %0, ptr noundef %1, ptr noundef %2, i8 noundef zeroext 101, i32 noundef 5, i32 noundef 40, i32 noundef %45, i32 noundef %42, ptr noundef null)
  %47 = zext i16 %46 to i32
  %.not84 = icmp eq i32 %42, %47
  br i1 %.not84, label %52, label %48

48:                                               ; preds = %44
  %49 = sub nsw i32 %42, %47
  %50 = add i32 %45, %47
  %51 = tail call ptr @proto_tree_add_expert(ptr noundef %1, ptr noundef %2, ptr noundef nonnull @ei_gsm_a_gm_extraneous_data, ptr noundef %0, i32 noundef %50, i32 noundef %49)
  br label %52

52:                                               ; preds = %.thread, %44, %48, %38, %33
  ret void
}